(lp0
(lp1
S'organizes'
p2
aS'organise'
p3
aS'regions'
p4
aS'singer'
p5
aS'siren'
p6
aS'sine'
p7
aS'sin'
p8
aa(lp9
S'constable'
p10
aS'obstacle'
p11
aS'locates'
p12
aS'closet'
p13
aS'stole'
p14
aS'lots'
p15
aS'lot'
p16
aa(lp17
S'delivered'
p18
aS'relieved'
p19
aS'deliver'
p20
aS'relied'
p21
aS'elder'
p22
aS'reed'
p23
aS'red'
p24
aa(lp25
S'triangles'
p26
aS'entrails'
p27
aS'retails'
p28
aS'serial'
p29
aS'liars'
p30
aS'airs'
p31
aS'sir'
p32
aa(lp33
S'shortages'
p34
aS'shortage'
p35
aS'earshot'
p36
aS'throes'
p37
aS'store'
p38
aS'sort'
p39
aS'rot'
p40
aa(lp41
S'obstacles'
p42
ag11
ag12
ag13
ag14
ag15
ag16
aa(lp43
g18
ag19
ag20
aS'levied'
p44
aS'lived'
p45
aS'lied'
p46
aS'die'
p47
aa(lp48
S'smoothing'
p49
aS'soothing'
p50
aS'hosting'
p51
aS'nights'
p52
aS'hints'
p53
aS'thin'
p54
aS'hit'
p55
aa(lp56
S'reheating'
p57
aS'earthing'
p58
aS'tearing'
p59
aS'retain'
p60
aS'inter'
p61
aS'tire'
p62
aS'tie'
p63
aa(lp64
S'blessings'
p65
aS'blessing'
p66
aS'singles'
p67
aS'single'
p68
aS'sling'
p69
aS'sign'
p70
ag8
aa(lp71
S'realities'
p72
aS'earliest'
p73
aS'realist'
p74
aS'retail'
p75
aS'later'
p76
aS'real'
p77
aS'ear'
p78
aa(lp79
S'comprises'
p80
aS'comprise'
p81
aS'copiers'
p82
aS'copier'
p83
aS'price'
p84
aS'ripe'
p85
aS'pie'
p86
aa(lp87
S'magnified'
p88
aS'imagined'
p89
aS'imagine'
p90
aS'enigma'
p91
aS'image'
p92
aS'game'
p93
aS'age'
p94
aa(lp95
S'cassettes'
p96
aS'cassette'
p97
aS'estates'
p98
aS'tastes'
p99
aS'seats'
p100
aS'eats'
p101
aS'ate'
p102
aa(lp103
S'decreases'
p104
aS'decrease'
p105
aS'creased'
p106
aS'sacred'
p107
aS'races'
p108
aS'acre'
p109
aS'car'
p110
aa(lp111
S'treasures'
p112
aS'reassure'
p113
aS'erasure'
p114
aS'eraser'
p115
aS'erase'
p116
aS'ease'
p117
aS'sea'
p118
aa(lp119
S'asteroids'
p120
aS'asteroid'
p121
aS'editors'
p122
aS'sorted'
p123
ag38
aS'rots'
p124
ag40
aa(lp125
S'separated'
p126
aS'separate'
p127
aS'repeats'
p128
aS'preset'
p129
aS'steer'
p130
aS'tree'
p131
aS'tee'
p132
aa(lp133
S'ascertain'
p134
aS'canister'
p135
aS'retains'
p136
aS'retina'
p137
aS'train'
p138
aS'rant'
p139
aS'ran'
p140
aa(lp141
S'disciples'
p142
aS'disciple'
p143
aS'spliced'
p144
aS'dispel'
p145
aS'piled'
p146
aS'pile'
p147
ag86
aa(lp148
S'organised'
p149
ag3
aS'soaring'
p150
aS'organs'
p151
aS'groan'
p152
aS'rang'
p153
ag140
aa(lp154
S'polarised'
p155
aS'parodies'
p156
aS'praised'
p157
aS'praise'
p158
aS'pears'
p159
aS'apes'
p160
aS'sap'
p161
aa(lp162
S'asterisks'
p163
aS'asterisk'
p164
aS'streaks'
p165
aS'stakes'
p166
aS'skate'
p167
aS'sake'
p168
aS'ask'
p169
aa(lp170
S'allocates'
p171
aS'allocate'
p172
aS'collate'
p173
aS'locate'
p174
aS'octal'
p175
aS'coal'
p176
aS'col'
p177
aa(lp178
S'scattered'
p179
aS'restated'
p180
aS'dearest'
p181
aS'stared'
p182
aS'stare'
p183
aS'arts'
p184
aS'sat'
p185
aa(lp186
S'registers'
p187
aS'register'
p188
aS'regrets'
p189
aS'regret'
p190
aS'greet'
p191
ag131
ag132
aa(lp192
S'rereading'
p193
aS'gardener'
p194
aS'enraged'
p195
aS'geared'
p196
aS'grade'
p197
aS'dear'
p198
aS'era'
p199
aa(lp200
S'incorrect'
p201
aS'concerti'
p202
aS'conceit'
p203
aS'notice'
p204
aS'tonic'
p205
aS'icon'
p206
aS'ion'
p207
aa(lp208
S'considers'
p209
aS'consider'
p210
aS'cronies'
p211
aS'censor'
p212
aS'cones'
p213
aS'nose'
p214
aS'eon'
p215
aa(lp216
S'tiredness'
p217
aS'inserted'
p218
aS'tenders'
p219
aS'resent'
p220
aS'tense'
p221
aS'seen'
p222
aS'see'
p223
aa(lp224
S'legendary'
p225
aS'enlarged'
p226
aS'grenade'
p227
aS'agreed'
p228
aS'agree'
p229
aS'rage'
p230
aS'are'
p231
aa(lp232
S'redefines'
p233
aS'redefine'
p234
aS'refined'
p235
aS'finder'
p236
aS'fined'
p237
aS'find'
p238
aS'fin'
p239
aa(lp240
S'generated'
p241
aS'generate'
p242
aS'teenage'
p243
aS'negate'
p244
aS'eaten'
p245
aS'neat'
p246
aS'ant'
p247
aa(lp248
S'rationing'
p249
aS'ignorant'
p250
aS'ranting'
p251
aS'rating'
p252
aS'giant'
p253
aS'gain'
p254
aS'nag'
p255
aa(lp256
S'launchers'
p257
aS'launcher'
p258
aS'unclear'
p259
aS'neural'
p260
aS'learn'
p261
ag77
ag78
aa(lp262
S'persisted'
p263
aS'resisted'
p264
aS'dessert'
p265
aS'resets'
p266
aS'reset'
p267
aS'rest'
p268
aS'set'
p269
aa(lp270
S'contrived'
p271
aS'contrive'
p272
aS'convert'
p273
aS'vector'
p274
aS'covet'
p275
aS'veto'
p276
aS'toe'
p277
aa(lp278
S'disasters'
p279
aS'distress'
p280
aS'sisters'
p281
aS'sister'
p282
aS'tries'
p283
aS'ties'
p284
aS'sit'
p285
aa(lp286
S'utilising'
p287
aS'linguist'
p288
aS'listing'
p289
aS'siting'
p290
aS'sting'
p291
aS'sing'
p292
ag8
aa(lp293
S'transient'
p294
aS'nitrates'
p295
aS'nitrate'
p296
ag137
ag138
ag139
aS'tar'
p297
aa(lp298
S'internals'
p299
ag27
aS'reliant'
p300
aS'linear'
p301
aS'alien'
p302
aS'nail'
p303
aS'nil'
p304
aa(lp305
S'snatching'
p306
aS'scathing'
p307
aS'chasing'
p308
aS'chains'
p309
aS'china'
p310
aS'chin'
p311
aS'chi'
p312
aa(lp313
g179
ag180
aS'started'
p314
aS'treats'
p315
ag183
aS'seat'
p316
ag185
aa(lp317
S'factories'
p318
aS'forecast'
p319
aS'factors'
p320
aS'crofts'
p321
aS'frost'
p322
ag124
ag40
aa(lp323
S'centuries'
p324
aS'insecure'
p325
aS'sincere'
p326
aS'screen'
p327
aS'sneer'
p328
ag222
ag223
aa(lp329
g10
ag11
ag12
ag13
ag14
aS'lest'
p330
ag269
aa(lp331
S'employers'
p332
aS'polymers'
p333
aS'leprosy'
p334
aS'sorely'
p335
aS'loser'
p336
aS'rose'
p337
aS'ore'
p338
aa(lp339
S'diversion'
p340
aS'revision'
p341
aS'version'
p342
aS'senior'
p343
aS'rinse'
p344
ag7
ag8
aa(lp345
S'universes'
p346
aS'universe'
p347
aS'inverse'
p348
aS'nerves'
p349
aS'nerve'
p350
aS'even'
p351
aS'eve'
p352
aa(lp353
S'particles'
p354
aS'particle'
p355
aS'replica'
p356
aS'parcel'
p357
aS'pearl'
p358
aS'plea'
p359
aS'ale'
p360
aa(lp361
S'misplaced'
p362
aS'decimals'
p363
aS'claimed'
p364
aS'malice'
p365
aS'camel'
p366
aS'male'
p367
ag360
aa(lp368
S'intervals'
p369
ag27
ag28
aS'trails'
p370
ag30
aS'lair'
p371
aS'air'
p372
aa(lp373
S'rejecting'
p374
aS'erecting'
p375
aS'generic'
p376
aS'cringe'
p377
aS'reign'
p378
aS'ring'
p379
aS'rig'
p380
aa(lp381
g112
aS'treasure'
p382
aS'austere'
p383
aS'eaters'
p384
aS'trees'
p385
ag131
ag132
aa(lp386
S'preaching'
p387
aS'reaching'
p388
aS'hearing'
p389
aS'regain'
p390
aS'range'
p391
aS'near'
p392
ag140
aa(lp393
g10
ag11
ag12
ag13
ag14
ag15
ag16
aa(lp394
S'straining'
p395
aS'training'
p396
aS'raining'
p397
aS'airing'
p398
aS'grain'
p399
aS'rain'
p400
ag140
aa(lp401
g72
ag73
aS'realise'
p402
aS'resale'
p403
aS'reels'
p404
aS'else'
p405
ag223
aa(lp406
S'replacing'
p407
aS'clearing'
p408
aS'realign'
p409
ag301
aS'liner'
p410
aS'line'
p411
aS'lie'
p412
aa(lp413
S'strangled'
p414
aS'strangle'
p415
aS'largest'
p416
aS'greats'
p417
aS'grate'
p418
aS'rate'
p419
ag297
aa(lp420
S'receivers'
p421
aS'receives'
p422
aS'service'
p423
aS'revise'
p424
aS'serve'
p425
aS'ever'
p426
ag352
aa(lp427
S'arguments'
p428
aS'argument'
p429
aS'garment'
p430
aS'magnet'
p431
aS'meant'
p432
aS'tame'
p433
ag102
aa(lp434
S'terminals'
p435
ag27
ag136
aS'satire'
p436
aS'rates'
p437
ag101
ag118
aa(lp438
S'ingrained'
p439
aS'draining'
p440
ag397
ag398
ag399
aS'grin'
p441
ag380
aa(lp442
S'decorated'
p443
aS'decorate'
p444
aS'reacted'
p445
aS'traced'
p446
aS'crate'
p447
aS'care'
p448
ag231
aa(lp449
S'liberally'
p450
aS'reliably'
p451
aS'liberal'
p452
aS'liable'
p453
aS'libel'
p454
aS'bill'
p455
aS'ill'
p456
aa(lp457
S'reasoning'
p458
aS'earnings'
p459
aS'nearing'
p460
ag390
ag391
ag153
ag255
aa(lp461
g299
aS'internal'
p462
aS'lantern'
p463
aS'rental'
p464
ag76
ag419
aS'art'
p465
aa(lp466
S'constrain'
p467
aS'sanction'
p468
aS'actions'
p469
aS'action'
p470
ag205
aS'coin'
p471
ag207
aa(lp472
S'embarking'
p473
aS'breaking'
p474
aS'braking'
p475
aS'raking'
p476
ag399
ag153
ag140
aa(lp477
g318
ag319
ag320
aS'factor'
p478
aS'actor'
p479
aS'coat'
p480
aS'act'
p481
aa(lp482
S'clustered'
p483
aS'lectures'
p484
aS'cluster'
p485
aS'rustle'
p486
aS'rules'
p487
aS'sure'
p488
aS'rue'
p489
aa(lp490
S'factorise'
p491
ag319
ag320
ag478
aS'craft'
p492
aS'cart'
p493
ag110
aa(lp494
S'adventure'
p495
aS'ventured'
p496
aS'venture'
p497
aS'neuter'
p498
aS'tuner'
p499
aS'rent'
p500
aS'net'
p501
aa(lp502
S'reloading'
p503
aS'regional'
p504
ag409
ag390
aS'anger'
p505
ag153
ag255
aa(lp506
g495
ag496
ag497
ag498
ag499
aS'turn'
p507
aS'rut'
p508
aa(lp509
S'positions'
p510
aS'position'
p511
aS'options'
p512
aS'points'
p513
aS'pints'
p514
aS'pins'
p515
aS'nip'
p516
aa(lp517
S'increased'
p518
aS'increase'
p519
ag326
ag327
ag328
ag222
ag223
aa(lp520
S'castrated'
p521
aS'detracts'
p522
aS'detract'
p523
ag446
aS'trace'
p524
ag493
ag465
aa(lp525
S'splashing'
p526
aS'slashing'
p527
aS'signals'
p528
aS'assign'
p529
aS'sings'
p530
ag292
ag8
aa(lp531
g201
ag202
ag203
ag204
ag205
ag471
ag207
aa(lp532
S'provinces'
p533
aS'conspire'
p534
aS'princes'
p535
aS'prices'
p536
aS'piers'
p537
aS'rips'
p538
ag32
aa(lp539
S'scenarios'
p540
aS'scenario'
p541
ag211
ag212
ag213
aS'ones'
p542
aS'one'
p543
aa(lp544
g179
ag180
ag181
aS'deters'
p545
ag130
ag268
ag269
aa(lp546
S'offerings'
p547
aS'offering'
p548
aS'foreign'
p549
aS'region'
p550
ag378
ag441
ag380
aa(lp551
g42
ag11
ag12
aS'castle'
p552
aS'stale'
p553
aS'salt'
p554
ag185
aa(lp555
S'denigrate'
p556
aS'retained'
p557
aS'trainee'
p558
ag137
ag61
aS'rite'
p559
ag63
aa(lp560
S'ministers'
p561
aS'minister'
p562
aS'minster'
p563
aS'merits'
p564
aS'times'
p565
aS'stem'
p566
aS'met'
p567
aa(lp568
S'retracted'
p569
aS'terraced'
p570
aS'terrace'
p571
aS'career'
p572
aS'racer'
p573
aS'rear'
p574
aS'err'
p575
aa(lp576
S'normalise'
p577
aS'minerals'
p578
aS'remains'
p579
aS'armies'
p580
aS'raise'
p581
ag31
ag372
aa(lp582
g120
ag121
ag122
ag123
ag38
aS'tore'
p583
ag338
aa(lp584
S'degrading'
p585
aS'dreading'
p586
aS'reading'
p587
aS'daring'
p588
aS'drain'
p589
aS'raid'
p590
aS'aid'
p591
aa(lp592
S'certainly'
p593
aS'clarinet'
p594
aS'recital'
p595
ag75
aS'litre'
p596
ag559
ag63
aa(lp597
S'magnetism'
p598
aS'steaming'
p599
aS'inmates'
p600
aS'mantis'
p601
aS'mints'
p602
aS'tins'
p603
ag8
aa(lp604
g561
ag562
ag563
aS'insert'
p605
ag283
aS'stir'
p606
aS'its'
p607
aa(lp608
S'ancestors'
p609
aS'ancestor'
p610
aS'treason'
p611
aS'reason'
p612
aS'arose'
p613
aS'sore'
p614
ag338
aa(lp615
S'dwellings'
p616
aS'dwelling'
p617
aS'welding'
p618
aS'winged'
p619
aS'widen'
p620
aS'dine'
p621
aS'den'
p622
aa(lp623
S'discovers'
p624
aS'discover'
p625
aS'divorce'
p626
aS'voiced'
p627
aS'voice'
p628
aS'vice'
p629
aS'vie'
p630
aa(lp631
S'resistors'
p632
aS'resistor'
p633
aS'resorts'
p634
aS'resort'
p635
ag38
aS'toes'
p636
ag277
aa.